; Function Attrs: mustprogress uwtable
define void @_ZNK6casadi10MXFunction14instruction_MXEx(ptr dead_on_unwind noalias writable sret(%"class.casadi::MX") align 8 %0, ptr nocapture noundef nonnull readonly align 8 dereferenceable(1450) %1, i64 noundef %2) unnamed_addr #3 align 2 {
  %4 = getelementptr inbounds i8, ptr %1, i64 1352
  %5 = getelementptr inbounds i8, ptr %1, i64 1360
  %6 = load ptr, ptr %5, align 8
  %7 = load ptr, ptr %4, align 8
  %8 = ptrtoint ptr %6 to i64
  %9 = ptrtoint ptr %7 to i64
  %10 = sub i64 %8, %9
  %11 = ashr exact i64 %10, 6
  %.not.i.i = icmp ugt i64 %11, %2
  br i1 %.not.i.i, label %_ZNKSt6vectorIN6casadi7MXAlgElESaIS1_EE2atEm.exit, label %12

12:                                               ; preds = %3
  tail call void (ptr, ...) @_ZSt24__throw_out_of_range_fmtPKcz(ptr noundef nonnull @.str.218, i64 noundef %2, i64 noundef %11) #24
  unreachable

_ZNKSt6vectorIN6casadi7MXAlgElESaIS1_EE2atEm.exit: ; preds = %3
  %13 = getelementptr inbounds %"struct.casadi::MXAlgEl", ptr %7, i64 %2, i32 1
  tail call void @_ZN6casadi12SharedObjectC2ERKS0_(ptr noundef nonnull align 8 dereferenceable(8) %0, ptr noundef nonnull align 8 dereferenceable(8) %13)
  ret void
}